target datalayout = "e-m:e-p270:32:32-p271:32:32-p272:64:64-i64:64-i128:128-f80:128-n8:16:32:64-S128"
target triple = "x86_64-pc-linux-gnu"

%struct._object = type { %union.anon, ptr }
%union.anon = type { i64 }
%struct._typeobject = type { %struct.PyVarObject, ptr, i64, i64, ptr, i64, ptr, ptr, ptr, ptr, ptr, ptr, ptr, ptr, ptr, ptr, ptr, ptr, ptr, i64, ptr, ptr, ptr, ptr, i64, ptr, ptr, ptr, ptr, ptr, ptr, ptr, ptr, ptr, i64, ptr, ptr, ptr, ptr, ptr, ptr, ptr, ptr, ptr, ptr, ptr, i32, ptr, ptr, i8, i16 }
%struct.PyVarObject = type { %struct._object, i64 }

@.str.165 = private unnamed_addr constant [18 x i8] c"PyTuple_Check(op)\00", align 1
@.str.166 = private unnamed_addr constant [41 x i8] c"../cpython/Include/cpython/tupleobject.h\00", align 1
@__PRETTY_FUNCTION__.PyTuple_GET_SIZE = private unnamed_addr constant [40 x i8] c"Py_ssize_t PyTuple_GET_SIZE(PyObject *)\00", align 1
@PyLong_Type = external global %struct._typeobject, align 8
@.str.167 = private unnamed_addr constant [28 x i8] c"Py_TYPE(ob) != &PyLong_Type\00", align 1
@.str.168 = private unnamed_addr constant [28 x i8] c"../cpython/Include/object.h\00", align 1
@__PRETTY_FUNCTION__.Py_SIZE = private unnamed_addr constant [31 x i8] c"Py_ssize_t Py_SIZE(PyObject *)\00", align 1
@PyBool_Type = external global %struct._typeobject, align 8
@.str.169 = private unnamed_addr constant [28 x i8] c"Py_TYPE(ob) != &PyBool_Type\00", align 1

; Function Attrs: inlinehint nounwind uwtable
define internal i64 @Py_SIZE(ptr noundef %0) #3 {
  %2 = alloca ptr, align 8
  store ptr %0, ptr %2, align 8, !tbaa !3
  %3 = load ptr, ptr %2, align 8, !tbaa !3
  %4 = call ptr @_Py_TYPE(ptr noundef %3)
  %5 = icmp ne ptr %4, @PyLong_Type
  br i1 %5, label %6, label %7

6:                                                ; preds = %1
  br label %9

7:                                                ; preds = %1
  call void @__assert_fail(ptr noundef @.str.167, ptr noundef @.str.168, i32 noundef 282, ptr noundef @__PRETTY_FUNCTION__.Py_SIZE) #11
  unreachable

8:                                                ; No predecessors!
  br label %9

9:                                                ; preds = %8, %6
  %10 = load ptr, ptr %2, align 8, !tbaa !3
  %11 = call ptr @_Py_TYPE(ptr noundef %10)
  %12 = icmp ne ptr %11, @PyBool_Type
  br i1 %12, label %13, label %14

13:                                               ; preds = %9
  br label %16

14:                                               ; preds = %9
  call void @__assert_fail(ptr noundef @.str.169, ptr noundef @.str.168, i32 noundef 283, ptr noundef @__PRETTY_FUNCTION__.Py_SIZE) #11
  unreachable

15:                                               ; No predecessors!
  br label %16

16:                                               ; preds = %15, %13
  %17 = load ptr, ptr %2, align 8, !tbaa !3
  %18 = getelementptr inbounds nuw %struct.PyVarObject, ptr %17, i32 0, i32 1
  %19 = load i64, ptr %18, align 8, !tbaa !260
  ret i64 %19
}

; Function Attrs: inlinehint nounwind uwtable
define internal i32 @PyType_HasFeature(ptr noundef %0, i64 noundef %1) #3 {
  %3 = alloca ptr, align 8
  %4 = alloca i64, align 8
  %5 = alloca i64, align 8
  store ptr %0, ptr %3, align 8, !tbaa !145
  store i64 %1, ptr %4, align 8, !tbaa !27
  call void @llvm.lifetime.start.p0(i64 8, ptr %5) #10
  %6 = load ptr, ptr %3, align 8, !tbaa !145
  %7 = getelementptr inbounds nuw %struct._typeobject, ptr %6, i32 0, i32 19
  %8 = load i64, ptr %7, align 8, !tbaa !249
  store i64 %8, ptr %5, align 8, !tbaa !27
  %9 = load i64, ptr %5, align 8, !tbaa !27
  %10 = load i64, ptr %4, align 8, !tbaa !27
  %11 = and i64 %9, %10
  %12 = icmp ne i64 %11, 0
  %13 = zext i1 %12 to i32
  call void @llvm.lifetime.end.p0(i64 8, ptr %5) #10
  ret i32 %13
}

; Function Attrs: inlinehint nounwind uwtable
define internal ptr @_Py_TYPE(ptr noundef %0) #3 {
  %2 = alloca ptr, align 8
  store ptr %0, ptr %2, align 8, !tbaa !3
  %3 = load ptr, ptr %2, align 8, !tbaa !3
  %4 = getelementptr inbounds nuw %struct._object, ptr %3, i32 0, i32 1
  %5 = load ptr, ptr %4, align 8, !tbaa !255
  ret ptr %5
}

; Function Attrs: nounwind uwtable
define internal ptr @_testinternalcapi_compiler_codegen_impl(ptr noundef %0, ptr noundef %1, ptr noundef %2, i32 noundef %3, i32 noundef %4) #0 {
  %6 = alloca ptr, align 8
  %7 = alloca ptr, align 8
  %8 = alloca ptr, align 8
  %9 = alloca i32, align 4
  %10 = alloca i32, align 4
  %11 = alloca ptr, align 8
  store ptr %0, ptr %6, align 8, !tbaa !3
  store ptr %1, ptr %7, align 8, !tbaa !3
  store ptr %2, ptr %8, align 8, !tbaa !3
  store i32 %3, ptr %9, align 4, !tbaa !26
  store i32 %4, ptr %10, align 4, !tbaa !26
  call void @llvm.lifetime.start.p0(i64 8, ptr %11) #10
  store ptr null, ptr %11, align 8, !tbaa !8
  %12 = load ptr, ptr %7, align 8, !tbaa !3
  %13 = load ptr, ptr %8, align 8, !tbaa !3
  %14 = load ptr, ptr %11, align 8, !tbaa !8
  %15 = load i32, ptr %9, align 4, !tbaa !26
  %16 = load i32, ptr %10, align 4, !tbaa !26
  %17 = call ptr @_PyCompile_CodeGen(ptr noundef %12, ptr noundef %13, ptr noundef %14, i32 noundef %15, i32 noundef %16)
  call void @llvm.lifetime.end.p0(i64 8, ptr %11) #10
  ret ptr %17
}

; Function Attrs: inlinehint nounwind uwtable
define internal i64 @PyTuple_GET_SIZE(ptr noundef %0) #3 {
  %2 = alloca ptr, align 8
  %3 = alloca ptr, align 8
  store ptr %0, ptr %2, align 8, !tbaa !3
  call void @llvm.lifetime.start.p0(i64 8, ptr %3) #10
  %4 = load ptr, ptr %2, align 8, !tbaa !3
  %5 = call ptr @_Py_TYPE(ptr noundef %4)
  %6 = call i32 @PyType_HasFeature(ptr noundef %5, i64 noundef 67108864)
  %7 = icmp ne i32 %6, 0
  br i1 %7, label %8, label %9

8:                                                ; preds = %1
  br label %11

9:                                                ; preds = %1
  call void @__assert_fail(ptr noundef @.str.165, ptr noundef @.str.166, i32 noundef 22, ptr noundef @__PRETTY_FUNCTION__.PyTuple_GET_SIZE) #11
  unreachable

10:                                               ; No predecessors!
  br label %11

11:                                               ; preds = %10, %8
  %12 = load ptr, ptr %2, align 8, !tbaa !3
  store ptr %12, ptr %3, align 8, !tbaa !8
  %13 = load ptr, ptr %3, align 8, !tbaa !8
  %14 = call i64 @Py_SIZE(ptr noundef %13)
  call void @llvm.lifetime.end.p0(i64 8, ptr %3) #10
  ret i64 %14
}

; Function Attrs: nounwind uwtable
define internal ptr @_testinternalcapi_compiler_codegen(ptr noundef %0, ptr noundef %1, i64 noundef %2, ptr noundef %3) #0 {
  %5 = alloca ptr, align 8
  %6 = alloca ptr, align 8
  %7 = alloca i64, align 8
  %8 = alloca ptr, align 8
  %9 = alloca ptr, align 8
  %10 = alloca [4 x ptr], align 16
  %11 = alloca i64, align 8
  %12 = alloca ptr, align 8
  %13 = alloca ptr, align 8
  %14 = alloca i32, align 4
  %15 = alloca i32, align 4
  store ptr %0, ptr %5, align 8, !tbaa !3
  store ptr %1, ptr %6, align 8, !tbaa !48
  store i64 %2, ptr %7, align 8, !tbaa !27
  store ptr %3, ptr %8, align 8, !tbaa !3
  call void @llvm.lifetime.start.p0(i64 8, ptr %9) #10
  store ptr null, ptr %9, align 8, !tbaa !3
  call void @llvm.lifetime.start.p0(i64 32, ptr %10) #10
  call void @llvm.lifetime.start.p0(i64 8, ptr %11) #10
  %16 = load i64, ptr %7, align 8, !tbaa !27
  %17 = load ptr, ptr %8, align 8, !tbaa !3
  %18 = icmp ne ptr %17, null
  br i1 %18, label %19, label %22

19:                                               ; preds = %4
  %20 = load ptr, ptr %8, align 8, !tbaa !3
  %21 = call i64 @PyTuple_GET_SIZE(ptr noundef %20)
  br label %23

22:                                               ; preds = %4
  br label %23

23:                                               ; preds = %22, %19
  %24 = phi i64 [ %21, %19 ], [ 0, %22 ]
  %25 = add i64 %16, %24
  %26 = sub i64 %25, 3
  store i64 %26, ptr %11, align 8, !tbaa !27
  call void @llvm.lifetime.start.p0(i64 8, ptr %12) #10
  call void @llvm.lifetime.start.p0(i64 8, ptr %13) #10
  call void @llvm.lifetime.start.p0(i64 4, ptr %14) #10
  call void @llvm.lifetime.start.p0(i64 4, ptr %15) #10
  store i32 0, ptr %15, align 4, !tbaa !26
  %27 = load ptr, ptr %8, align 8, !tbaa !3
  %28 = icmp eq ptr %27, null
  br i1 %28, label %29, label %40

29:                                               ; preds = %23
  %30 = load i64, ptr %7, align 8, !tbaa !27
  %31 = icmp sle i64 3, %30
  br i1 %31, label %32, label %40

32:                                               ; preds = %29
  %33 = load i64, ptr %7, align 8, !tbaa !27
  %34 = icmp sle i64 %33, 4
  br i1 %34, label %35, label %40

35:                                               ; preds = %32
  %36 = load ptr, ptr %6, align 8, !tbaa !48
  %37 = icmp ne ptr %36, null
  br i1 %37, label %38, label %40

38:                                               ; preds = %35
  %39 = load ptr, ptr %6, align 8, !tbaa !48
  br label %46

40:                                               ; preds = %35, %32, %29, %23
  %41 = load ptr, ptr %6, align 8, !tbaa !48
  %42 = load i64, ptr %7, align 8, !tbaa !27
  %43 = load ptr, ptr %8, align 8, !tbaa !3
  %44 = getelementptr inbounds [4 x ptr], ptr %10, i64 0, i64 0
  %45 = call ptr @_PyArg_UnpackKeywords(ptr noundef %41, i64 noundef %42, ptr noundef null, ptr noundef %43, ptr noundef @_testinternalcapi_compiler_codegen._parser, i32 noundef 3, i32 noundef 4, i32 noundef 0, i32 noundef 0, ptr noundef %44)
  br label %46

46:                                               ; preds = %40, %38
  %47 = phi ptr [ %39, %38 ], [ %45, %40 ]
  store ptr %47, ptr %6, align 8, !tbaa !48
  %48 = load ptr, ptr %6, align 8, !tbaa !48
  %49 = icmp ne ptr %48, null
  br i1 %49, label %51, label %50

50:                                               ; preds = %46
  br label %91

51:                                               ; preds = %46
  %52 = load ptr, ptr %6, align 8, !tbaa !48
  %53 = getelementptr ptr, ptr %52, i64 0
  %54 = load ptr, ptr %53, align 8, !tbaa !3
  store ptr %54, ptr %12, align 8, !tbaa !3
  %55 = load ptr, ptr %6, align 8, !tbaa !48
  %56 = getelementptr ptr, ptr %55, i64 1
  %57 = load ptr, ptr %56, align 8, !tbaa !3
  store ptr %57, ptr %13, align 8, !tbaa !3
  %58 = load ptr, ptr %6, align 8, !tbaa !48
  %59 = getelementptr ptr, ptr %58, i64 2
  %60 = load ptr, ptr %59, align 8, !tbaa !3
  %61 = call i32 @PyLong_AsInt(ptr noundef %60)
  store i32 %61, ptr %14, align 4, !tbaa !26
  %62 = load i32, ptr %14, align 4, !tbaa !26
  %63 = icmp eq i32 %62, -1
  br i1 %63, label %64, label %68

64:                                               ; preds = %51
  %65 = call ptr @PyErr_Occurred()
  %66 = icmp ne ptr %65, null
  br i1 %66, label %67, label %68

67:                                               ; preds = %64
  br label %91

68:                                               ; preds = %64, %51
  %69 = load i64, ptr %11, align 8, !tbaa !27
  %70 = icmp ne i64 %69, 0
  br i1 %70, label %72, label %71

71:                                               ; preds = %68
  br label %84

72:                                               ; preds = %68
  %73 = load ptr, ptr %6, align 8, !tbaa !48
  %74 = getelementptr ptr, ptr %73, i64 3
  %75 = load ptr, ptr %74, align 8, !tbaa !3
  %76 = call i32 @PyLong_AsInt(ptr noundef %75)
  store i32 %76, ptr %15, align 4, !tbaa !26
  %77 = load i32, ptr %15, align 4, !tbaa !26
  %78 = icmp eq i32 %77, -1
  br i1 %78, label %79, label %83

79:                                               ; preds = %72
  %80 = call ptr @PyErr_Occurred()
  %81 = icmp ne ptr %80, null
  br i1 %81, label %82, label %83

82:                                               ; preds = %79
  br label %91

83:                                               ; preds = %79, %72
  br label %84

84:                                               ; preds = %83, %71
  %85 = load ptr, ptr %5, align 8, !tbaa !3
  %86 = load ptr, ptr %12, align 8, !tbaa !3
  %87 = load ptr, ptr %13, align 8, !tbaa !3
  %88 = load i32, ptr %14, align 4, !tbaa !26
  %89 = load i32, ptr %15, align 4, !tbaa !26
  %90 = call ptr @_testinternalcapi_compiler_codegen_impl(ptr noundef %85, ptr noundef %86, ptr noundef %87, i32 noundef %88, i32 noundef %89)
  store ptr %90, ptr %9, align 8, !tbaa !3
  br label %91

91:                                               ; preds = %84, %82, %67, %50
  %92 = load ptr, ptr %9, align 8, !tbaa !3
  call void @llvm.lifetime.end.p0(i64 4, ptr %15) #10
  call void @llvm.lifetime.end.p0(i64 4, ptr %14) #10
  call void @llvm.lifetime.end.p0(i64 8, ptr %13) #10
  call void @llvm.lifetime.end.p0(i64 8, ptr %12) #10
  call void @llvm.lifetime.end.p0(i64 8, ptr %11) #10
  call void @llvm.lifetime.end.p0(i64 32, ptr %10) #10
  call void @llvm.lifetime.end.p0(i64 8, ptr %9) #10
  ret ptr %92
}