; Function Attrs: nounwind uwtable
define internal ptr @_testinternalcapi_compiler_codegen(ptr readnone captures(none) %0, ptr noundef %1, i64 noundef %2, ptr noundef %3) #0 {
  %5 = alloca [4 x ptr], align 16
  call void @llvm.lifetime.start.p0(i64 32, ptr nonnull %5) #11
  %.not = icmp eq ptr %3, null
  br i1 %.not, label %18, label %6

6:                                                ; preds = %4
  %7 = getelementptr i8, ptr %3, i64 8
  %.val.i = load ptr, ptr %7, align 8, !tbaa !46
  %8 = getelementptr i8, ptr %.val.i, i64 168
  %.val3.i = load i64, ptr %8, align 8, !tbaa !49
  %9 = and i64 %.val3.i, 67108864
  %.not.i = icmp eq i64 %9, 0
  br i1 %.not.i, label %10, label %11

10:                                               ; preds = %6
  tail call void @__assert_fail(ptr noundef nonnull @.str.165, ptr noundef nonnull @.str.166, i32 noundef 22, ptr noundef nonnull @__PRETTY_FUNCTION__.PyTuple_GET_SIZE) #12
  unreachable

11:                                               ; preds = %6
  %.not.i.i = icmp eq ptr %.val.i, @PyLong_Type
  br i1 %.not.i.i, label %12, label %13

12:                                               ; preds = %11
  tail call void @__assert_fail(ptr noundef nonnull @.str.167, ptr noundef nonnull @.str.168, i32 noundef 282, ptr noundef nonnull @__PRETTY_FUNCTION__.Py_SIZE) #12
  unreachable

13:                                               ; preds = %11
  %.not3.i.i = icmp eq ptr %.val.i, @PyBool_Type
  br i1 %.not3.i.i, label %14, label %.thread

14:                                               ; preds = %13
  tail call void @__assert_fail(ptr noundef nonnull @.str.169, ptr noundef nonnull @.str.168, i32 noundef 283, ptr noundef nonnull @__PRETTY_FUNCTION__.Py_SIZE) #12
  unreachable

.thread:                                          ; preds = %13
  %15 = getelementptr inbounds nuw i8, ptr %3, i64 16
  %16 = load i64, ptr %15, align 8, !tbaa !56
  %17 = add i64 %16, %2
  br label %22

18:                                               ; preds = %4
  %19 = add i64 %2, -3
  %20 = icmp ult i64 %19, 2
  %21 = icmp ne ptr %1, null
  %or.cond5 = and i1 %21, %20
  br i1 %or.cond5, label %.thread40, label %22

22:                                               ; preds = %18, %.thread
  %23 = phi i64 [ %17, %.thread ], [ %2, %18 ]
  %24 = call ptr @_PyArg_UnpackKeywords(ptr noundef %1, i64 noundef %2, ptr noundef null, ptr noundef %3, ptr noundef nonnull @_testinternalcapi_compiler_codegen._parser, i32 noundef 3, i32 noundef 4, i32 noundef 0, i32 noundef 0, ptr noundef nonnull %5) #11
  %.not34 = icmp eq ptr %24, null
  br i1 %.not34, label %46, label %.thread40

.thread40:                                        ; preds = %18, %22
  %25 = phi ptr [ %24, %22 ], [ %1, %18 ]
  %26 = phi i64 [ %23, %22 ], [ %2, %18 ]
  %27 = load ptr, ptr %25, align 8, !tbaa !9
  %28 = getelementptr i8, ptr %25, i64 8
  %29 = load ptr, ptr %28, align 8, !tbaa !9
  %30 = getelementptr i8, ptr %25, i64 16
  %31 = load ptr, ptr %30, align 8, !tbaa !9
  %32 = call i32 @PyLong_AsInt(ptr noundef %31) #11
  %33 = icmp eq i32 %32, -1
  br i1 %33, label %34, label %36

34:                                               ; preds = %.thread40
  %35 = call ptr @PyErr_Occurred() #11
  %.not35 = icmp eq ptr %35, null
  br i1 %.not35, label %36, label %46

36:                                               ; preds = %34, %.thread40
  %.not36 = icmp eq i64 %26, 3
  br i1 %.not36, label %44, label %37

37:                                               ; preds = %36
  %38 = getelementptr i8, ptr %25, i64 24
  %39 = load ptr, ptr %38, align 8, !tbaa !9
  %40 = call i32 @PyLong_AsInt(ptr noundef %39) #11
  %41 = icmp eq i32 %40, -1
  br i1 %41, label %42, label %44

42:                                               ; preds = %37
  %43 = call ptr @PyErr_Occurred() #11
  %.not37 = icmp eq ptr %43, null
  br i1 %.not37, label %44, label %46

44:                                               ; preds = %37, %42, %36
  %.0 = phi i32 [ -1, %42 ], [ %40, %37 ], [ 0, %36 ]
  %45 = call ptr @_PyCompile_CodeGen(ptr noundef %27, ptr noundef %29, ptr noundef null, i32 noundef %32, i32 noundef %.0) #11
  br label %46

46:                                               ; preds = %42, %34, %22, %44
  %.029 = phi ptr [ null, %34 ], [ null, %42 ], [ %45, %44 ], [ null, %22 ]
  call void @llvm.lifetime.end.p0(i64 32, ptr nonnull %5) #11
  ret ptr %.029
}